; Function Attrs: mustprogress uwtable
define hidden void @_ZN4cvc58internal6theory11quantifiers12InstantiatorC2ERNS0_3EnvENS0_8TypeNodeE(ptr noundef nonnull align 8 dereferenceable(25) %0, ptr noundef nonnull align 1 %1, ptr noundef %2) unnamed_addr #3 align 2 personality ptr @__gxx_personality_v0 {
  tail call void @_ZN4cvc58internal6EnvObjC2ERNS0_3EnvE(ptr noundef nonnull align 8 dereferenceable(16) %0, ptr noundef nonnull align 1 %1)
  store ptr getelementptr inbounds nuw inrange(-16, 136) (i8, ptr @_ZTVN4cvc58internal6theory11quantifiers12InstantiatorE, i64 16), ptr %0, align 8, !tbaa !3
  %4 = getelementptr inbounds nuw i8, ptr %0, i64 16
  %5 = load ptr, ptr %2, align 8, !tbaa !6
  store ptr %5, ptr %4, align 8, !tbaa !6
  %6 = load i64, ptr %5, align 8
  %7 = lshr i64 %6, 40
  %8 = trunc nuw nsw i64 %7 to i32
  %9 = and i32 %8, 1048575
  %10 = icmp samesign ult i32 %9, 1048574
  br i1 %10, label %11, label %16, !prof !11

11:                                               ; preds = %3
  %12 = add i64 %6, 1099511627776
  %13 = and i64 %12, 1152920405095219200
  %14 = and i64 %6, -1152920405095219201
  %15 = or disjoint i64 %13, %14
  store i64 %15, ptr %5, align 8
  br label %_ZN4cvc58internal8TypeNodeC2ERKS1_.exit

16:                                               ; preds = %3
  %17 = icmp eq i32 %9, 1048574
  br i1 %17, label %18, label %_ZN4cvc58internal8TypeNodeC2ERKS1_.exit, !prof !12

18:                                               ; preds = %16
  %19 = or i64 %6, 1152920405095219200
  store i64 %19, ptr %5, align 8
  tail call void @_ZN4cvc58internal4expr9NodeValue20markRefCountMaxedOutEv(ptr noundef nonnull align 8 dereferenceable(24) %5)
  br label %_ZN4cvc58internal8TypeNodeC2ERKS1_.exit

_ZN4cvc58internal8TypeNodeC2ERKS1_.exit:          ; preds = %18, %16, %11
  %20 = invoke noundef zeroext i1 @_ZN4cvc58internal8TypeNode18isClosedEnumerableEv(ptr noundef nonnull align 8 dereferenceable(8) %2)
          to label %21 unwind label %24

21:                                               ; preds = %_ZN4cvc58internal8TypeNodeC2ERKS1_.exit
  %22 = getelementptr inbounds nuw i8, ptr %0, i64 24
  %23 = zext i1 %20 to i8
  store i8 %23, ptr %22, align 8, !tbaa !13
  ret void

24:                                               ; preds = %_ZN4cvc58internal8TypeNodeC2ERKS1_.exit
  %25 = landingpad { ptr, i32 }
          cleanup
  tail call void @_ZN4cvc58internal8TypeNodeD2Ev(ptr noundef nonnull align 8 dereferenceable(8) %4) #14
  resume { ptr, i32 } %25
}